target datalayout = "e-m:e-p270:32:32-p271:32:32-p272:64:64-i64:64-i128:128-f80:128-n8:16:32:64-S128"
target triple = "x86_64-pc-linux-gnu"

%class.OopHandle = type { ptr }
%class.ThreadDumpResult = type { i32, i32, ptr, ptr, ptr, %class.ThreadsListSetter }
%class.ThreadsListSetter = type { %class.SafeThreadsListPtr }
%class.SafeThreadsListPtr = type <{ ptr, ptr, ptr, i8, i8, [6 x i8] }>
%class.ThreadSnapshot = type { ptr, %class.OopHandle, i32, i8, i8, i64, i64, i64, i64, i64, i64, %class.OopHandle, %class.OopHandle, ptr, ptr, ptr }

; Function Attrs: mustprogress nounwind uwtable
define linkonce_odr hidden noundef ptr @_ZNK18SafeThreadsListPtr4listEv(ptr noundef nonnull align 8 dereferenceable(26) %0) #1 comdat align 2 {
  %2 = alloca ptr, align 8
  store ptr %0, ptr %2, align 8
  %3 = load ptr, ptr %2, align 8
  %4 = getelementptr inbounds %class.SafeThreadsListPtr, ptr %3, i32 0, i32 2
  %5 = load ptr, ptr %4, align 8
  ret ptr %5
}

; Function Attrs: mustprogress nounwind uwtable
define linkonce_odr hidden noundef ptr @_ZN17ThreadsListSetter4listEv(ptr noundef nonnull align 8 dereferenceable(32) %0) #1 comdat align 2 {
  %2 = alloca ptr, align 8
  store ptr %0, ptr %2, align 8
  %3 = load ptr, ptr %2, align 8
  %4 = getelementptr inbounds %class.ThreadsListSetter, ptr %3, i32 0, i32 0
  %5 = call noundef ptr @_ZNK18SafeThreadsListPtr4listEv(ptr noundef nonnull align 8 dereferenceable(26) %4)
  ret ptr %5
}

; Function Attrs: mustprogress nounwind uwtable
define linkonce_odr hidden void @_ZN14ThreadSnapshot8set_nextEPS_(ptr noundef nonnull align 8 dereferenceable(112) %0, ptr noundef %1) #1 comdat align 2 {
  %3 = alloca ptr, align 8
  %4 = alloca ptr, align 8
  store ptr %0, ptr %3, align 8
  store ptr %1, ptr %4, align 8
  %5 = load ptr, ptr %3, align 8
  %6 = load ptr, ptr %4, align 8
  %7 = getelementptr inbounds %class.ThreadSnapshot, ptr %5, i32 0, i32 15
  store ptr %6, ptr %7, align 8
  ret void
}

; Function Attrs: mustprogress nounwind uwtable
define linkonce_odr hidden void @_ZN9OopHandleC2Ev(ptr noundef nonnull align 8 dereferenceable(8) %0) unnamed_addr #1 comdat align 2 {
  %2 = alloca ptr, align 8
  store ptr %0, ptr %2, align 8
  %3 = load ptr, ptr %2, align 8
  %4 = getelementptr inbounds %class.OopHandle, ptr %3, i32 0, i32 0
  store ptr null, ptr %4, align 8
  ret void
}

; Function Attrs: mustprogress nounwind uwtable
define hidden noundef ptr @_ZN16ThreadDumpResult6t_listEv(ptr noundef nonnull align 8 dereferenceable(64) %0) #1 align 2 {
  %2 = alloca ptr, align 8
  store ptr %0, ptr %2, align 8
  %3 = load ptr, ptr %2, align 8
  %4 = getelementptr inbounds %class.ThreadDumpResult, ptr %3, i32 0, i32 5
  %5 = call noundef ptr @_ZN17ThreadsListSetter4listEv(ptr noundef nonnull align 8 dereferenceable(32) %4)
  ret ptr %5
}

; Function Attrs: mustprogress nounwind uwtable
define hidden void @_ZN16ThreadDumpResult20link_thread_snapshotEP14ThreadSnapshot(ptr noundef nonnull align 8 dereferenceable(64) %0, ptr noundef %1) #1 align 2 {
  %3 = alloca ptr, align 8
  %4 = alloca ptr, align 8
  store ptr %0, ptr %3, align 8
  store ptr %1, ptr %4, align 8
  %5 = load ptr, ptr %3, align 8
  %6 = getelementptr inbounds %class.ThreadDumpResult, ptr %5, i32 0, i32 1
  %7 = load i32, ptr %6, align 4
  %8 = add nsw i32 %7, 1
  store i32 %8, ptr %6, align 4
  %9 = getelementptr inbounds %class.ThreadDumpResult, ptr %5, i32 0, i32 2
  %10 = load ptr, ptr %9, align 8
  %11 = icmp eq ptr %10, null
  br i1 %11, label %12, label %15

12:                                               ; preds = %2
  %13 = load ptr, ptr %4, align 8
  %14 = getelementptr inbounds %class.ThreadDumpResult, ptr %5, i32 0, i32 2
  store ptr %13, ptr %14, align 8
  br label %19

15:                                               ; preds = %2
  %16 = getelementptr inbounds %class.ThreadDumpResult, ptr %5, i32 0, i32 3
  %17 = load ptr, ptr %16, align 8
  %18 = load ptr, ptr %4, align 8
  call void @_ZN14ThreadSnapshot8set_nextEPS_(ptr noundef nonnull align 8 dereferenceable(112) %17, ptr noundef %18)
  br label %19

19:                                               ; preds = %15, %12
  %20 = load ptr, ptr %4, align 8
  %21 = getelementptr inbounds %class.ThreadDumpResult, ptr %5, i32 0, i32 3
  store ptr %20, ptr %21, align 8
  ret void
}

; Function Attrs: mustprogress nounwind uwtable
define linkonce_odr hidden void @_ZN14ThreadSnapshotC2Ev(ptr noundef nonnull align 8 dereferenceable(112) %0) unnamed_addr #1 comdat align 2 {
  %2 = alloca ptr, align 8
  store ptr %0, ptr %2, align 8
  %3 = load ptr, ptr %2, align 8
  %4 = getelementptr inbounds %class.ThreadSnapshot, ptr %3, i32 0, i32 0
  store ptr null, ptr %4, align 8
  %5 = getelementptr inbounds %class.ThreadSnapshot, ptr %3, i32 0, i32 1
  call void @_ZN9OopHandleC2Ev(ptr noundef nonnull align 8 dereferenceable(8) %5)
  %6 = getelementptr inbounds %class.ThreadSnapshot, ptr %3, i32 0, i32 11
  call void @_ZN9OopHandleC2Ev(ptr noundef nonnull align 8 dereferenceable(8) %6)
  %7 = getelementptr inbounds %class.ThreadSnapshot, ptr %3, i32 0, i32 12
  call void @_ZN9OopHandleC2Ev(ptr noundef nonnull align 8 dereferenceable(8) %7)
  %8 = getelementptr inbounds %class.ThreadSnapshot, ptr %3, i32 0, i32 13
  store ptr null, ptr %8, align 8
  %9 = getelementptr inbounds %class.ThreadSnapshot, ptr %3, i32 0, i32 14
  store ptr null, ptr %9, align 8
  %10 = getelementptr inbounds %class.ThreadSnapshot, ptr %3, i32 0, i32 15
  store ptr null, ptr %10, align 8
  ret void
}

; Function Attrs: mustprogress nounwind uwtable
define hidden noundef ptr @_ZN16ThreadDumpResult19add_thread_snapshotEP10JavaThread(ptr noundef nonnull align 8 dereferenceable(64) %0, ptr noundef %1) #1 align 2 {
  %3 = alloca i64, align 8
  %4 = alloca i8, align 1
  %5 = alloca i64, align 8
  %6 = alloca ptr, align 8
  %7 = alloca ptr, align 8
  %8 = alloca ptr, align 8
  store ptr %0, ptr %6, align 8
  store ptr %1, ptr %7, align 8
  %9 = load ptr, ptr %6, align 8
  store i64 112, ptr %5, align 8
  %10 = load i64, ptr %5, align 8
  store i64 %10, ptr %3, align 8
  store i8 9, ptr %4, align 1
  %11 = load i64, ptr %3, align 8
  %12 = load i8, ptr %4, align 1
  %13 = call noundef ptr @_Z12AllocateHeapm8MEMFLAGSN17AllocFailStrategy13AllocFailEnumE(i64 noundef %11, i8 noundef zeroext %12, i32 noundef 0) #8
  call void @_ZN14ThreadSnapshotC2Ev(ptr noundef nonnull align 8 dereferenceable(112) %13)
  store ptr %13, ptr %8, align 8
  %14 = load ptr, ptr %8, align 8
  call void @_ZN16ThreadDumpResult20link_thread_snapshotEP14ThreadSnapshot(ptr noundef nonnull align 8 dereferenceable(64) %9, ptr noundef %14)
  %15 = load ptr, ptr %8, align 8
  %16 = call noundef ptr @_ZN16ThreadDumpResult6t_listEv(ptr noundef nonnull align 8 dereferenceable(64) %9)
  %17 = load ptr, ptr %7, align 8
  call void @_ZN14ThreadSnapshot10initializeEP11ThreadsListP10JavaThread(ptr noundef nonnull align 8 dereferenceable(112) %15, ptr noundef %16, ptr noundef %17)
  %18 = load ptr, ptr %8, align 8
  ret ptr %18
}