; Function Attrs: mustprogress nounwind uwtable
define hidden noundef ptr @_ZN16ThreadDumpResult19add_thread_snapshotEP10JavaThread(ptr nocapture noundef nonnull align 8 dereferenceable(64) %0, ptr noundef %1) local_unnamed_addr #0 align 2 {
  %3 = tail call noundef ptr @_Z12AllocateHeapm8MEMFLAGSN17AllocFailStrategy13AllocFailEnumE(i64 noundef 112, i8 noundef zeroext 9, i32 noundef 0) #12
  %4 = getelementptr inbounds i8, ptr %3, i64 72
  tail call void @llvm.memset.p0.i64(ptr noundef nonnull align 8 dereferenceable(16) %3, i8 0, i64 16, i1 false)
  tail call void @llvm.memset.p0.i64(ptr noundef nonnull align 8 dereferenceable(40) %4, i8 0, i64 40, i1 false)
  %5 = getelementptr inbounds i8, ptr %0, i64 4
  %6 = load i32, ptr %5, align 4
  %7 = add nsw i32 %6, 1
  store i32 %7, ptr %5, align 4
  %8 = getelementptr inbounds i8, ptr %0, i64 8
  %9 = load ptr, ptr %8, align 8
  %10 = icmp eq ptr %9, null
  %11 = getelementptr inbounds i8, ptr %0, i64 16
  %12 = load ptr, ptr %11, align 8
  %13 = getelementptr inbounds i8, ptr %12, i64 104
  %.sink.i = select i1 %10, ptr %8, ptr %13
  store ptr %3, ptr %.sink.i, align 8
  store ptr %3, ptr %11, align 8
  %14 = getelementptr inbounds i8, ptr %0, i64 48
  %15 = load ptr, ptr %14, align 8
  tail call void @_ZN14ThreadSnapshot10initializeEP11ThreadsListP10JavaThread(ptr noundef nonnull align 8 dereferenceable(112) %3, ptr noundef %15, ptr noundef %1)
  ret ptr %3
}